; Function Attrs: mustprogress uwtable
define void @_ZN6icu_7514SearchIteratorC2ERNS_17CharacterIteratorEPNS_13BreakIteratorE(ptr noundef nonnull align 8 dereferenceable(88) %this, ptr noundef nonnull align 8 dereferenceable(24) %text, ptr noundef %breakiter) unnamed_addr #0 align 2 personality ptr @__gxx_personality_v0 {
invoke.cont:
  store ptr getelementptr inbounds ({ [16 x ptr] }, ptr @_ZTVN6icu_7514SearchIteratorE, i64 0, i32 0, i64 2), ptr %this, align 8
  %m_breakiterator_ = getelementptr inbounds i8, ptr %this, i64 16
  store ptr %breakiter, ptr %m_breakiterator_, align 8
  %m_text_ = getelementptr inbounds i8, ptr %this, i64 24
  store ptr getelementptr inbounds ({ [13 x ptr] }, ptr @_ZTVN6icu_7513UnicodeStringE, i64 0, i32 0, i64 2), ptr %m_text_, align 8
  %fUnion2.i = getelementptr inbounds i8, ptr %this, i64 32
  store i16 2, ptr %fUnion2.i, align 8
  %call = invoke noalias dereferenceable_or_null(48) ptr @uprv_malloc_75(i64 noundef 48) #14
          to label %invoke.cont3 unwind label %lpad2

invoke.cont3:                                     ; preds = %invoke.cont
  %m_search_ = getelementptr inbounds i8, ptr %this, i64 8
  store ptr %call, ptr %m_search_, align 8
  %breakIter = getelementptr inbounds i8, ptr %call, i64 24
  store ptr null, ptr %breakIter, align 8
  %isOverlap = getelementptr inbounds i8, ptr %call, i64 12
  store i8 0, ptr %isOverlap, align 4
  %isCanonicalMatch = getelementptr inbounds i8, ptr %call, i64 13
  store i8 0, ptr %isCanonicalMatch, align 1
  %elementComparisonType = getelementptr inbounds i8, ptr %call, i64 14
  store i16 0, ptr %elementComparisonType, align 2
  %isForwardSearching = getelementptr inbounds i8, ptr %call, i64 40
  store i8 1, ptr %isForwardSearching, align 8
  %reset = getelementptr inbounds i8, ptr %call, i64 41
  store i8 1, ptr %reset, align 1
  %matchedIndex = getelementptr inbounds i8, ptr %call, i64 32
  store i32 -1, ptr %matchedIndex, align 8
  %matchedLength = getelementptr inbounds i8, ptr %call, i64 36
  store i32 0, ptr %matchedLength, align 4
  %vtable = load ptr, ptr %text, align 8
  %vfn = getelementptr inbounds i8, ptr %vtable, i64 208
  %0 = load ptr, ptr %vfn, align 8
  invoke void %0(ptr noundef nonnull align 8 dereferenceable(24) %text, ptr noundef nonnull align 8 dereferenceable(64) %m_text_)
          to label %invoke.cont13 unwind label %lpad2

invoke.cont13:                                    ; preds = %invoke.cont3
  %1 = load i16, ptr %fUnion2.i, align 8
  %conv1.i = zext i16 %1 to i32
  %and.i = and i32 %conv1.i, 17
  %tobool.not.i = icmp eq i32 %and.i, 0
  br i1 %tobool.not.i, label %if.else.i, label %invoke.cont20

if.else.i:                                        ; preds = %invoke.cont13
  %and5.i = and i32 %conv1.i, 2
  %tobool6.not.i = icmp eq i32 %and5.i, 0
  br i1 %tobool6.not.i, label %if.else9.i, label %if.then7.i

if.then7.i:                                       ; preds = %if.else.i
  %fBuffer.i = getelementptr inbounds i8, ptr %this, i64 34
  br label %invoke.cont20

if.else9.i:                                       ; preds = %if.else.i
  %fArray.i = getelementptr inbounds i8, ptr %this, i64 48
  %2 = load ptr, ptr %fArray.i, align 8
  br label %invoke.cont20

invoke.cont20:                                    ; preds = %if.else9.i, %if.then7.i, %invoke.cont13
  %retval.0.i = phi ptr [ %fBuffer.i, %if.then7.i ], [ %2, %if.else9.i ], [ null, %invoke.cont13 ]
  %3 = load ptr, ptr %m_search_, align 8
  store ptr %retval.0.i, ptr %3, align 8
  %4 = load i16, ptr %fUnion2.i, align 8
  %cmp.i.i = icmp slt i16 %4, 0
  %5 = ashr i16 %4, 5
  %shr.i.i = sext i16 %5 to i32
  %fLength.i = getelementptr inbounds i8, ptr %this, i64 36
  %6 = load i32, ptr %fLength.i, align 4
  %cond.i = select i1 %cmp.i.i, i32 %6, i32 %shr.i.i
  %7 = load ptr, ptr %m_search_, align 8
  %textLength = getelementptr inbounds i8, ptr %7, i64 8
  store i32 %cond.i, ptr %textLength, align 8
  store ptr %breakiter, ptr %m_breakiterator_, align 8
  ret void

lpad2:                                            ; preds = %invoke.cont3, %invoke.cont
  %8 = landingpad { ptr, i32 }
          cleanup
  tail call void @_ZN6icu_7513UnicodeStringD1Ev(ptr noundef nonnull align 8 dereferenceable(64) %m_text_) #15
  tail call void @_ZN6icu_757UObjectD2Ev(ptr noundef nonnull align 8 dereferenceable(8) %this) #15
  resume { ptr, i32 } %8
}